; Function Attrs: nounwind uwtable
define ptr @l_Lean_Compiler_LCNF_normParams___at_Lean_Compiler_LCNF_Code_cse_goFunDecl___spec__1___boxed(ptr noundef %0, ptr noundef %1, ptr noundef %2, ptr noundef %3, ptr noundef %4, ptr noundef %5, ptr noundef %6, ptr noundef %7) local_unnamed_addr #1 {
  %9 = ptrtoint ptr %0 to i64
  %10 = and i64 %9, 1
  %.not = icmp eq i64 %10, 0
  br i1 %.not, label %11, label %lean_dec.exit

11:                                               ; preds = %8
  %12 = load i32, ptr %0, align 4, !tbaa !4
  %13 = icmp sgt i32 %12, 1
  br i1 %13, label %14, label %16, !prof !11

14:                                               ; preds = %11
  %15 = add nsw i32 %12, -1
  store i32 %15, ptr %0, align 4, !tbaa !4
  br label %lean_dec.exit

16:                                               ; preds = %11
  %.not.i = icmp eq i32 %12, 0
  br i1 %.not.i, label %lean_dec.exit, label %17

17:                                               ; preds = %16
  tail call void @lean_dec_ref_cold(ptr noundef nonnull %0) #4
  br label %lean_dec.exit

lean_dec.exit:                                    ; preds = %17, %16, %14, %8
  tail call void @lean_inc_heartbeat() #4
  %18 = tail call noalias ptr @mi_malloc_small(i64 noundef 32) #4
  %19 = icmp eq ptr %18, null
  br i1 %19, label %20, label %l_Lean_Compiler_LCNF_normParams___at_Lean_Compiler_LCNF_Code_cse_goFunDecl___spec__1.exit

20:                                               ; preds = %lean_dec.exit
  tail call void @lean_internal_panic_out_of_memory() #5
  unreachable

l_Lean_Compiler_LCNF_normParams___at_Lean_Compiler_LCNF_Code_cse_goFunDecl___spec__1.exit: ; preds = %lean_dec.exit
  %21 = and i64 %9, 510
  %22 = or disjoint i64 %21, 1
  %23 = inttoptr i64 %22 to ptr
  %24 = getelementptr inbounds nuw i8, ptr %18, i64 4
  store i32 1, ptr %18, align 4, !tbaa !4
  store i32 -184549344, ptr %24, align 4
  %25 = getelementptr inbounds nuw i8, ptr %18, i64 8
  store ptr @l_Lean_Compiler_LCNF_normParam___at_Lean_Compiler_LCNF_Code_cse_goFunDecl___spec__2___boxed, ptr %25, align 8, !tbaa !9
  %26 = getelementptr inbounds nuw i8, ptr %18, i64 16
  store i16 8, ptr %26, align 8, !tbaa !14
  %27 = getelementptr inbounds nuw i8, ptr %18, i64 18
  store i16 1, ptr %27, align 2, !tbaa !14
  %28 = getelementptr inbounds nuw i8, ptr %18, i64 24
  store ptr %23, ptr %28, align 8, !tbaa !9
  %29 = tail call ptr @l___private_Init_Data_Array_BasicAux_0__mapMonoMImp_go___at_Lean_Compiler_LCNF_Code_cse_goFunDecl___spec__4(ptr noundef nonnull %18, ptr noundef nonnull inttoptr (i64 1 to ptr), ptr noundef %1, ptr noundef %2, ptr noundef %3, ptr noundef %4, ptr noundef %5, ptr noundef %6, ptr noundef %7)
  ret ptr %29
}